target datalayout = "e-m:e-p270:32:32-p271:32:32-p272:64:64-i64:64-i128:128-f80:128-n8:16:32:64-S128"
target triple = "x86_64-pc-linux-gnu"

%struct.slurm_conf_t = type { i64, ptr, i16, ptr, ptr, ptr, ptr, ptr, i16, ptr, ptr, ptr, ptr, ptr, ptr, ptr, i16, ptr, ptr, ptr, ptr, i16, ptr, ptr, ptr, i64, ptr, ptr, ptr, ptr, i16, ptr, ptr, i16, i32, ptr, i32, ptr, i32, i32, ptr, ptr, i64, i64, ptr, i16, i16, ptr, i32, i32, ptr, i32, ptr, i32, i16, i16, i16, ptr, i16, i16, ptr, ptr, i32, i16, i16, ptr, i32, i16, ptr, ptr, ptr, ptr, i16, ptr, ptr, ptr, ptr, i32, ptr, ptr, ptr, ptr, i16, i16, ptr, i32, i32, i32, i16, i16, ptr, ptr, i16, ptr, ptr, i32, i32, i32, i32, i32, i64, i32, i32, i16, ptr, ptr, i32, ptr, ptr, ptr, i16, i32, ptr, ptr, i16, ptr, ptr, i32, i16, ptr, ptr, ptr, ptr, i32, i32, i16, i16, i32, ptr, i16, ptr, i32, i32, i32, i32, i32, i32, ptr, i16, ptr, ptr, i32, i16, ptr, i32, i16, i16, ptr, ptr, ptr, i16, ptr, ptr, ptr, ptr, i16, i16, ptr, i16, ptr, i16, ptr, i16, ptr, i16, ptr, ptr, ptr, ptr, i16, ptr, ptr, ptr, i32, ptr, i32, ptr, ptr, i16, ptr, ptr, i32, i16, ptr, ptr, i16, i16, ptr, i16, ptr, ptr, ptr, i32, ptr, i16, i16, ptr, ptr, ptr, ptr, ptr, ptr, ptr, ptr, i16, i32, i16, ptr, ptr, ptr, ptr, i32, ptr, ptr, ptr, i16, ptr, ptr, ptr, i16, ptr, i16, ptr, i16, i16, ptr }
%union.pthread_mutex_t = type { %struct.__pthread_mutex_s }
%struct.__pthread_mutex_s = type { i32, i32, i32, i32, i32, i16, i16, %struct.__pthread_internal_list }
%struct.__pthread_internal_list = type { ptr, ptr }
%struct.slurmdbd_conn_t = type { ptr, ptr, %union.pthread_mutex_t, ptr, ptr }
%struct.persist_conn_t = type { ptr, i32, i32, i8, ptr, ptr, ptr, i64, i16, i32, i16, i8, i32, i32, ptr, i16, ptr, i64, i32, ptr, %struct.slurm_trigger_callbacks_t, i16 }
%struct.slurm_trigger_callbacks_t = type { ptr, ptr, ptr, ptr, ptr }
%struct.persist_msg_t = type { ptr, ptr, i16 }
%struct.dbd_list_msg_t = type { ptr, i32 }

@slurm_conf = external global %struct.slurm_conf_t, align 8
@.str.8 = private unnamed_addr constant [11 x i8] c"proc_req.c\00", align 1
@.str.62 = private unnamed_addr constant [6 x i8] c"%s %u\00", align 1
@.str.141 = private unnamed_addr constant [49 x i8] c"DBD_SEND_MULT_JOB_START message from invalid uid\00", align 1
@__func__._send_mult_job_start = private unnamed_addr constant [21 x i8] c"_send_mult_job_start\00", align 1

; Function Attrs: nounwind uwtable
define internal zeroext i1 @_validate_slurm_user(ptr noundef %0) #0 {
  %2 = alloca i1, align 1
  %3 = alloca ptr, align 8
  %4 = alloca i32, align 4
  %5 = alloca i32, align 4
  store ptr %0, ptr %3, align 8
  call void @llvm.lifetime.start.p0(i64 4, ptr %4) #8
  %6 = load ptr, ptr %3, align 8
  %7 = getelementptr inbounds nuw %struct.slurmdbd_conn_t, ptr %6, i32 0, i32 0
  %8 = load ptr, ptr %7, align 8
  %9 = getelementptr inbounds nuw %struct.persist_conn_t, ptr %8, i32 0, i32 1
  %10 = load i32, ptr %9, align 8
  store i32 %10, ptr %4, align 4
  %11 = load i32, ptr %4, align 4
  %12 = icmp eq i32 %11, 0
  br i1 %12, label %17, label %13

13:                                               ; preds = %1
  %14 = load i32, ptr %4, align 4
  %15 = load i32, ptr getelementptr inbounds nuw (%struct.slurm_conf_t, ptr @slurm_conf, i32 0, i32 173), align 8
  %16 = icmp eq i32 %14, %15
  br i1 %16, label %17, label %18

17:                                               ; preds = %13, %1
  store i1 true, ptr %2, align 1
  store i32 1, ptr %5, align 4
  br label %19

18:                                               ; preds = %13
  store i1 false, ptr %2, align 1
  store i32 1, ptr %5, align 4
  br label %19

19:                                               ; preds = %18, %17
  call void @llvm.lifetime.end.p0(i64 4, ptr %4) #8
  %20 = load i1, ptr %2, align 1
  ret i1 %20
}

; Function Attrs: nounwind uwtable
define internal i32 @_send_mult_job_start(ptr noundef %0, ptr noundef %1, ptr noundef %2) #0 {
  %4 = alloca i32, align 4
  %5 = alloca ptr, align 8
  %6 = alloca ptr, align 8
  %7 = alloca ptr, align 8
  %8 = alloca ptr, align 8
  %9 = alloca %struct.dbd_list_msg_t, align 8
  %10 = alloca ptr, align 8
  %11 = alloca ptr, align 8
  %12 = alloca ptr, align 8
  %13 = alloca ptr, align 8
  %14 = alloca i32, align 4
  store ptr %0, ptr %5, align 8
  store ptr %1, ptr %6, align 8
  store ptr %2, ptr %7, align 8
  call void @llvm.lifetime.start.p0(i64 8, ptr %8) #8
  %15 = load ptr, ptr %6, align 8
  %16 = getelementptr inbounds nuw %struct.persist_msg_t, ptr %15, i32 0, i32 1
  %17 = load ptr, ptr %16, align 8
  store ptr %17, ptr %8, align 8
  call void @llvm.lifetime.start.p0(i64 16, ptr %9) #8
  call void @llvm.memset.p0.i64(ptr align 8 %9, i8 0, i64 16, i1 false)
  call void @llvm.lifetime.start.p0(i64 8, ptr %10) #8
  store ptr null, ptr %10, align 8
  call void @llvm.lifetime.start.p0(i64 8, ptr %11) #8
  store ptr null, ptr %11, align 8
  call void @llvm.lifetime.start.p0(i64 8, ptr %12) #8
  call void @llvm.lifetime.start.p0(i64 8, ptr %13) #8
  %18 = load ptr, ptr %5, align 8
  %19 = call zeroext i1 @_validate_slurm_user(ptr noundef %18)
  br i1 %19, label %34, label %20

20:                                               ; preds = %3
  store ptr @.str.141, ptr %10, align 8
  %21 = load ptr, ptr %10, align 8
  %22 = load ptr, ptr %5, align 8
  %23 = getelementptr inbounds nuw %struct.slurmdbd_conn_t, ptr %22, i32 0, i32 0
  %24 = load ptr, ptr %23, align 8
  %25 = getelementptr inbounds nuw %struct.persist_conn_t, ptr %24, i32 0, i32 1
  %26 = load i32, ptr %25, align 8
  %27 = call i32 (ptr, ...) @error(ptr noundef @.str.62, ptr noundef %21, i32 noundef %26)
  %28 = load ptr, ptr %5, align 8
  %29 = getelementptr inbounds nuw %struct.slurmdbd_conn_t, ptr %28, i32 0, i32 0
  %30 = load ptr, ptr %29, align 8
  %31 = load ptr, ptr %10, align 8
  %32 = call ptr @slurm_persist_make_rc_msg(ptr noundef %30, i32 noundef 2002, ptr noundef %31, i16 noundef zeroext 1472)
  %33 = load ptr, ptr %7, align 8
  store ptr %32, ptr %33, align 8
  store i32 -1, ptr %4, align 4
  store i32 1, ptr %14, align 4
  br label %77

34:                                               ; preds = %3
  %35 = call ptr @list_create(ptr noundef @slurmdbd_free_id_rc_msg)
  %36 = getelementptr inbounds nuw %struct.dbd_list_msg_t, ptr %9, i32 0, i32 0
  store ptr %35, ptr %36, align 8
  %37 = load ptr, ptr %8, align 8
  %38 = getelementptr inbounds nuw %struct.dbd_list_msg_t, ptr %37, i32 0, i32 0
  %39 = load ptr, ptr %38, align 8
  %40 = call ptr @list_iterator_create(ptr noundef %39)
  store ptr %40, ptr %11, align 8
  br label %41

41:                                               ; preds = %45, %34
  %42 = load ptr, ptr %11, align 8
  %43 = call ptr @list_next(ptr noundef %42)
  store ptr %43, ptr %12, align 8
  %44 = icmp ne ptr %43, null
  br i1 %44, label %45, label %53

45:                                               ; preds = %41
  %46 = call ptr @slurm_xcalloc(i64 noundef 1, i64 noundef 32, i1 noundef zeroext true, i1 noundef zeroext false, ptr noundef @.str.8, i32 noundef 2888, ptr noundef @__func__._send_mult_job_start)
  store ptr %46, ptr %13, align 8
  %47 = getelementptr inbounds nuw %struct.dbd_list_msg_t, ptr %9, i32 0, i32 0
  %48 = load ptr, ptr %47, align 8
  %49 = load ptr, ptr %13, align 8
  call void @list_append(ptr noundef %48, ptr noundef %49)
  %50 = load ptr, ptr %5, align 8
  %51 = load ptr, ptr %12, align 8
  %52 = load ptr, ptr %13, align 8
  call void @_process_job_start(ptr noundef %50, ptr noundef %51, ptr noundef %52)
  br label %41, !llvm.loop !14

53:                                               ; preds = %41
  %54 = load ptr, ptr %11, align 8
  call void @list_iterator_destroy(ptr noundef %54)
  %55 = call ptr @init_buf(i32 noundef 1024)
  %56 = load ptr, ptr %7, align 8
  store ptr %55, ptr %56, align 8
  %57 = load ptr, ptr %7, align 8
  %58 = load ptr, ptr %57, align 8
  call void @pack16(i16 noundef zeroext 1473, ptr noundef %58)
  %59 = load ptr, ptr %5, align 8
  %60 = getelementptr inbounds nuw %struct.slurmdbd_conn_t, ptr %59, i32 0, i32 0
  %61 = load ptr, ptr %60, align 8
  %62 = getelementptr inbounds nuw %struct.persist_conn_t, ptr %61, i32 0, i32 21
  %63 = load i16, ptr %62, align 8
  %64 = load ptr, ptr %7, align 8
  %65 = load ptr, ptr %64, align 8
  call void @slurmdbd_pack_list_msg(ptr noundef %9, i16 noundef zeroext %63, i32 noundef 1473, ptr noundef %65)
  br label %66

66:                                               ; preds = %53
  %67 = getelementptr inbounds nuw %struct.dbd_list_msg_t, ptr %9, i32 0, i32 0
  %68 = load ptr, ptr %67, align 8
  %69 = icmp ne ptr %68, null
  br i1 %69, label %70, label %73

70:                                               ; preds = %66
  %71 = getelementptr inbounds nuw %struct.dbd_list_msg_t, ptr %9, i32 0, i32 0
  %72 = load ptr, ptr %71, align 8
  call void @list_destroy(ptr noundef %72)
  br label %73

73:                                               ; preds = %70, %66
  %74 = getelementptr inbounds nuw %struct.dbd_list_msg_t, ptr %9, i32 0, i32 0
  store ptr null, ptr %74, align 8
  br label %75

75:                                               ; preds = %73
  br label %76

76:                                               ; preds = %75
  store i32 0, ptr %4, align 4
  store i32 1, ptr %14, align 4
  br label %77

77:                                               ; preds = %76, %20
  call void @llvm.lifetime.end.p0(i64 8, ptr %13) #8
  call void @llvm.lifetime.end.p0(i64 8, ptr %12) #8
  call void @llvm.lifetime.end.p0(i64 8, ptr %11) #8
  call void @llvm.lifetime.end.p0(i64 8, ptr %10) #8
  call void @llvm.lifetime.end.p0(i64 16, ptr %9) #8
  call void @llvm.lifetime.end.p0(i64 8, ptr %8) #8
  %78 = load i32, ptr %4, align 4
  ret i32 %78
}