; Function Attrs: nounwind uwtable
define internal fastcc range(i32 -1, 1) i32 @_send_mult_job_start(ptr noundef %0, ptr readonly captures(none) %.8.val, ptr noundef captures(none) %1) unnamed_addr #0 {
  %3 = alloca %struct.dbd_list_msg_t, align 8
  call void @llvm.lifetime.start.p0(i64 16, ptr nonnull %3) #10
  %4 = getelementptr inbounds nuw i8, ptr %3, i64 8
  store i64 0, ptr %4, align 8
  %.val = load ptr, ptr %0, align 8
  %5 = getelementptr i8, ptr %.val, i64 8
  %.val.val = load i32, ptr %5, align 8
  %6 = icmp eq i32 %.val.val, 0
  %7 = load i32, ptr getelementptr inbounds nuw (i8, ptr @slurm_conf, i64 1152), align 8
  %8 = icmp eq i32 %.val.val, %7
  %or.cond.i = select i1 %6, i1 true, i1 %8
  br i1 %or.cond.i, label %13, label %9

9:                                                ; preds = %2
  %10 = tail call i32 (ptr, ...) @error(ptr noundef nonnull @.str.62, ptr noundef nonnull @.str.141, i32 noundef %.val.val) #10
  %11 = load ptr, ptr %0, align 8
  %12 = tail call ptr @slurm_persist_make_rc_msg(ptr noundef %11, i32 noundef 2002, ptr noundef nonnull @.str.141, i16 noundef zeroext 1472) #10
  store ptr %12, ptr %1, align 8
  br label %28

13:                                               ; preds = %2
  %14 = tail call ptr @list_create(ptr noundef nonnull @slurmdbd_free_id_rc_msg) #10
  store ptr %14, ptr %3, align 8
  %15 = load ptr, ptr %.8.val, align 8
  %16 = tail call ptr @list_iterator_create(ptr noundef %15) #10
  %17 = tail call ptr @list_next(ptr noundef %16) #10
  %.not1 = icmp eq ptr %17, null
  br i1 %.not1, label %._crit_edge, label %.lr.ph

.lr.ph:                                           ; preds = %13, %.lr.ph
  %18 = phi ptr [ %20, %.lr.ph ], [ %17, %13 ]
  %19 = tail call ptr @slurm_xcalloc(i64 noundef 1, i64 noundef 32, i1 noundef zeroext true, i1 noundef zeroext false, ptr noundef nonnull @.str.8, i32 noundef 2888, ptr noundef nonnull @__func__._send_mult_job_start) #10
  tail call void @list_append(ptr noundef %14, ptr noundef %19) #10
  tail call fastcc void @_process_job_start(ptr noundef nonnull %0, ptr noundef nonnull %18, ptr noundef %19)
  %20 = tail call ptr @list_next(ptr noundef %16) #10
  %.not = icmp eq ptr %20, null
  br i1 %.not, label %._crit_edge, label %.lr.ph, !llvm.loop !13

._crit_edge:                                      ; preds = %.lr.ph, %13
  tail call void @list_iterator_destroy(ptr noundef %16) #10
  %21 = tail call ptr @init_buf(i32 noundef 1024) #10
  store ptr %21, ptr %1, align 8
  tail call void @pack16(i16 noundef zeroext 1473, ptr noundef %21) #10
  %22 = load ptr, ptr %0, align 8
  %23 = getelementptr inbounds nuw i8, ptr %22, i64 168
  %24 = load i16, ptr %23, align 8
  %25 = load ptr, ptr %1, align 8
  call void @slurmdbd_pack_list_msg(ptr noundef nonnull %3, i16 noundef zeroext %24, i32 noundef 1473, ptr noundef %25) #10
  %26 = load ptr, ptr %3, align 8
  %.not20 = icmp eq ptr %26, null
  br i1 %.not20, label %28, label %27

27:                                               ; preds = %._crit_edge
  call void @list_destroy(ptr noundef nonnull %26) #10
  br label %28

28:                                               ; preds = %._crit_edge, %27, %9
  %.0 = phi i32 [ -1, %9 ], [ 0, %27 ], [ 0, %._crit_edge ]
  call void @llvm.lifetime.end.p0(i64 16, ptr nonnull %3) #10
  ret i32 %.0
}